; Function Attrs: mustprogress uwtable
define dso_local void @_ZN10VIdProtect9protectIfERKNSt7__cxx1112basic_stringIcSt11char_traitsIcESaIcEEEb(ptr dead_on_unwind noalias writable sret(%"class.std::__cxx11::basic_string") align 8 %0, ptr noundef nonnull align 8 dereferenceable(32) %1, i1 noundef zeroext %2) #4 align 2 personality ptr @__gxx_personality_v0 {
  %4 = load atomic i8, ptr @_ZGVZN13VIdProtectImp9singletonEvE1s acquire, align 8
  %5 = icmp eq i8 %4, 0
  br i1 %5, label %6, label %_ZN13VIdProtectImp9singletonEv.exit, !prof !241

6:                                                ; preds = %3
  %7 = tail call i32 @__cxa_guard_acquire(ptr nonnull @_ZGVZN13VIdProtectImp9singletonEvE1s) #34
  %.not.i = icmp eq i32 %7, 0
  br i1 %.not.i, label %_ZN13VIdProtectImp9singletonEv.exit, label %8

8:                                                ; preds = %6
  invoke void @_ZN13VIdProtectImpC2Ev(ptr noundef nonnull align 8 dereferenceable(144) @_ZZN13VIdProtectImp9singletonEvE1s)
          to label %9 unwind label %11

9:                                                ; preds = %8
  %10 = tail call i32 @__cxa_atexit(ptr nonnull @_ZN13VIdProtectImpD2Ev, ptr nonnull @_ZZN13VIdProtectImp9singletonEvE1s, ptr nonnull @__dso_handle) #34
  tail call void @__cxa_guard_release(ptr nonnull @_ZGVZN13VIdProtectImp9singletonEvE1s) #34
  br label %_ZN13VIdProtectImp9singletonEv.exit

11:                                               ; preds = %8
  %12 = landingpad { ptr, i32 }
          cleanup
  tail call void @__cxa_guard_abort(ptr nonnull @_ZGVZN13VIdProtectImp9singletonEvE1s) #34
  resume { ptr, i32 } %12

_ZN13VIdProtectImp9singletonEv.exit:              ; preds = %3, %6, %9
  tail call void @_ZN13VIdProtectImp9protectIfERKNSt7__cxx1112basic_stringIcSt11char_traitsIcESaIcEEEb(ptr dead_on_unwind writable sret(%"class.std::__cxx11::basic_string") align 8 %0, ptr noundef nonnull align 8 dereferenceable(144) @_ZZN13VIdProtectImp9singletonEvE1s, ptr noundef nonnull align 8 dereferenceable(32) %1, i1 noundef zeroext %2)
  ret void
}